target datalayout = "e-m:e-p270:32:32-p271:32:32-p272:64:64-i64:64-i128:128-f80:128-n8:16:32:64-S128"
target triple = "x86_64-pc-linux-gnu"

@.str.2 = private unnamed_addr constant [9 x i8] c"%s[%d]={\00", align 1
@.str.3 = private unnamed_addr constant [3 x i8] c", \00", align 1
@.str.4 = private unnamed_addr constant [3 x i8] c"%d\00", align 1
@.str.5 = private unnamed_addr constant [3 x i8] c"}\0A\00", align 1

; Function Attrs: mustprogress uwtable
define void @_Z8pr_ivecsP8_IO_FILEiPKcPA3_Kiib(ptr noundef %0, i32 noundef %1, ptr noundef %2, ptr noundef %3, i32 noundef %4, i1 noundef zeroext %5) #0 {
  %7 = alloca ptr, align 8
  %8 = alloca i32, align 4
  %9 = alloca ptr, align 8
  %10 = alloca ptr, align 8
  %11 = alloca i32, align 4
  %12 = alloca i8, align 1
  %13 = alloca i32, align 4
  %14 = alloca i32, align 4
  store ptr %0, ptr %7, align 8
  store i32 %1, ptr %8, align 4
  store ptr %2, ptr %9, align 8
  store ptr %3, ptr %10, align 8
  store i32 %4, ptr %11, align 4
  %15 = zext i1 %5 to i8
  store i8 %15, ptr %12, align 1
  %16 = load ptr, ptr %7, align 8
  %17 = load ptr, ptr %10, align 8
  %18 = load i32, ptr %8, align 4
  %19 = load ptr, ptr %9, align 8
  %20 = call noundef zeroext i1 @_Z9availableP8_IO_FILEPKviPKc(ptr noundef %16, ptr noundef %17, i32 noundef %18, ptr noundef %19)
  br i1 %20, label %21, label %75

21:                                               ; preds = %6
  %22 = load ptr, ptr %7, align 8
  %23 = load i32, ptr %8, align 4
  %24 = load ptr, ptr %9, align 8
  %25 = load i32, ptr %11, align 4
  %26 = call noundef i32 @_Z12pr_title_nxnP8_IO_FILEiPKcii(ptr noundef %22, i32 noundef %23, ptr noundef %24, i32 noundef %25, i32 noundef 3)
  store i32 %26, ptr %8, align 4
  store i32 0, ptr %13, align 4
  br label %27

27:                                               ; preds = %71, %21
  %28 = load i32, ptr %13, align 4
  %29 = load i32, ptr %11, align 4
  %30 = icmp slt i32 %28, %29
  br i1 %30, label %31, label %74

31:                                               ; preds = %27
  %32 = load ptr, ptr %7, align 8
  %33 = load i32, ptr %8, align 4
  %34 = call noundef i32 @_Z9pr_indentP8_IO_FILEi(ptr noundef %32, i32 noundef %33)
  %35 = load ptr, ptr %7, align 8
  %36 = load ptr, ptr %9, align 8
  %37 = load i8, ptr %12, align 1
  %38 = trunc i8 %37 to i1
  br i1 %38, label %39, label %41

39:                                               ; preds = %31
  %40 = load i32, ptr %13, align 4
  br label %42

41:                                               ; preds = %31
  br label %42

42:                                               ; preds = %41, %39
  %43 = phi i32 [ %40, %39 ], [ -1, %41 ]
  %44 = call i32 (ptr, ptr, ...) @fprintf(ptr noundef %35, ptr noundef @.str.2, ptr noundef %36, i32 noundef %43) #3
  store i32 0, ptr %14, align 4
  br label %45

45:                                               ; preds = %65, %42
  %46 = load i32, ptr %14, align 4
  %47 = icmp slt i32 %46, 3
  br i1 %47, label %48, label %68

48:                                               ; preds = %45
  %49 = load i32, ptr %14, align 4
  %50 = icmp ne i32 %49, 0
  br i1 %50, label %51, label %54

51:                                               ; preds = %48
  %52 = load ptr, ptr %7, align 8
  %53 = call i32 (ptr, ptr, ...) @fprintf(ptr noundef %52, ptr noundef @.str.3) #3
  br label %54

54:                                               ; preds = %51, %48
  %55 = load ptr, ptr %7, align 8
  %56 = load ptr, ptr %10, align 8
  %57 = load i32, ptr %13, align 4
  %58 = sext i32 %57 to i64
  %59 = getelementptr inbounds [3 x i32], ptr %56, i64 %58
  %60 = load i32, ptr %14, align 4
  %61 = sext i32 %60 to i64
  %62 = getelementptr inbounds [3 x i32], ptr %59, i64 0, i64 %61
  %63 = load i32, ptr %62, align 4
  %64 = call i32 (ptr, ptr, ...) @fprintf(ptr noundef %55, ptr noundef @.str.4, i32 noundef %63) #3
  br label %65

65:                                               ; preds = %54
  %66 = load i32, ptr %14, align 4
  %67 = add nsw i32 %66, 1
  store i32 %67, ptr %14, align 4
  br label %45, !llvm.loop !10

68:                                               ; preds = %45
  %69 = load ptr, ptr %7, align 8
  %70 = call i32 (ptr, ptr, ...) @fprintf(ptr noundef %69, ptr noundef @.str.5) #3
  br label %71

71:                                               ; preds = %68
  %72 = load i32, ptr %13, align 4
  %73 = add nsw i32 %72, 1
  store i32 %73, ptr %13, align 4
  br label %27, !llvm.loop !11

74:                                               ; preds = %27
  br label %75

75:                                               ; preds = %74, %6
  ret void
}