; Function Attrs: mustprogress uwtable
define void @_Z8pr_ivecsP8_IO_FILEiPKcPA3_Kiib(ptr noundef %0, i32 noundef %1, ptr noundef %2, ptr noundef %3, i32 noundef %4, i1 noundef zeroext %5) local_unnamed_addr #0 {
  %7 = tail call noundef zeroext i1 @_Z9availableP8_IO_FILEPKviPKc(ptr noundef %0, ptr noundef %3, i32 noundef %1, ptr noundef %2)
  br i1 %7, label %8, label %.loopexit

8:                                                ; preds = %6
  %9 = tail call noundef i32 @_Z12pr_title_nxnP8_IO_FILEiPKcii(ptr noundef %0, i32 noundef %1, ptr noundef %2, i32 noundef %4, i32 noundef 3)
  %10 = icmp sgt i32 %4, 0
  br i1 %10, label %.lr.ph, label %.loopexit

.lr.ph:                                           ; preds = %8
  %wide.trip.count41 = zext nneg i32 %4 to i64
  br i1 %5, label %.lr.ph.split.us, label %.lr.ph.split

.lr.ph.split.us:                                  ; preds = %.lr.ph, %14
  %indvars.iv38 = phi i64 [ %indvars.iv.next39, %14 ], [ 0, %.lr.ph ]
  %11 = tail call noundef i32 @_Z9pr_indentP8_IO_FILEi(ptr noundef %0, i32 noundef %9)
  %12 = trunc nuw nsw i64 %indvars.iv38 to i32
  %13 = tail call i32 (ptr, ptr, ...) @fprintf(ptr noundef %0, ptr noundef nonnull @.str.2, ptr noundef %2, i32 noundef %12) #6
  br label %16

14:                                               ; preds = %19
  %15 = tail call i64 @fwrite(ptr nonnull @.str.5, i64 2, i64 1, ptr %0)
  %indvars.iv.next39 = add nuw nsw i64 %indvars.iv38, 1
  %exitcond42.not = icmp eq i64 %indvars.iv.next39, %wide.trip.count41
  br i1 %exitcond42.not, label %.loopexit, label %.lr.ph.split.us, !llvm.loop !10

16:                                               ; preds = %.lr.ph.split.us, %19
  %indvars.iv34 = phi i64 [ 0, %.lr.ph.split.us ], [ %indvars.iv.next35, %19 ]
  %.not.us = icmp eq i64 %indvars.iv34, 0
  br i1 %.not.us, label %19, label %17

17:                                               ; preds = %16
  %18 = tail call i64 @fwrite(ptr nonnull @.str.3, i64 2, i64 1, ptr %0)
  br label %19

19:                                               ; preds = %17, %16
  %20 = getelementptr inbounds [3 x i32], ptr %3, i64 %indvars.iv38, i64 %indvars.iv34
  %21 = load i32, ptr %20, align 4
  %22 = tail call i32 (ptr, ptr, ...) @fprintf(ptr noundef %0, ptr noundef nonnull @.str.4, i32 noundef %21) #6
  %indvars.iv.next35 = add nuw nsw i64 %indvars.iv34, 1
  %exitcond37.not = icmp eq i64 %indvars.iv.next35, 3
  br i1 %exitcond37.not, label %14, label %16, !llvm.loop !11

.lr.ph.split:                                     ; preds = %.lr.ph, %32
  %indvars.iv30 = phi i64 [ %indvars.iv.next31, %32 ], [ 0, %.lr.ph ]
  %23 = tail call noundef i32 @_Z9pr_indentP8_IO_FILEi(ptr noundef %0, i32 noundef %9)
  %24 = tail call i32 (ptr, ptr, ...) @fprintf(ptr noundef %0, ptr noundef nonnull @.str.2, ptr noundef %2, i32 noundef -1) #6
  br label %25

25:                                               ; preds = %.lr.ph.split, %28
  %indvars.iv = phi i64 [ 0, %.lr.ph.split ], [ %indvars.iv.next, %28 ]
  %.not = icmp eq i64 %indvars.iv, 0
  br i1 %.not, label %28, label %26

26:                                               ; preds = %25
  %27 = tail call i64 @fwrite(ptr nonnull @.str.3, i64 2, i64 1, ptr %0)
  br label %28

28:                                               ; preds = %26, %25
  %29 = getelementptr inbounds [3 x i32], ptr %3, i64 %indvars.iv30, i64 %indvars.iv
  %30 = load i32, ptr %29, align 4
  %31 = tail call i32 (ptr, ptr, ...) @fprintf(ptr noundef %0, ptr noundef nonnull @.str.4, i32 noundef %30) #6
  %indvars.iv.next = add nuw nsw i64 %indvars.iv, 1
  %exitcond.not = icmp eq i64 %indvars.iv.next, 3
  br i1 %exitcond.not, label %32, label %25, !llvm.loop !11

32:                                               ; preds = %28
  %33 = tail call i64 @fwrite(ptr nonnull @.str.5, i64 2, i64 1, ptr %0)
  %indvars.iv.next31 = add nuw nsw i64 %indvars.iv30, 1
  %exitcond33.not = icmp eq i64 %indvars.iv.next31, %wide.trip.count41
  br i1 %exitcond33.not, label %.loopexit, label %.lr.ph.split, !llvm.loop !10

.loopexit:                                        ; preds = %32, %14, %8, %6
  ret void
}